; Function Attrs: mustprogress uwtable
define dso_local noundef zeroext i1 @_ZNK17ExpressionFuncall7use_varEPK8Variable(ptr nocapture noundef nonnull readonly align 8 dereferenceable(32) %0, ptr noundef %1) unnamed_addr #3 align 2 {
  %3 = getelementptr inbounds i8, ptr %0, i64 24
  %4 = load ptr, ptr %3, align 8
  %5 = getelementptr inbounds i8, ptr %4, i64 16
  %6 = getelementptr inbounds i8, ptr %4, i64 24
  %7 = load ptr, ptr %6, align 8
  %8 = load ptr, ptr %5, align 8
  %.not = icmp eq ptr %7, %8
  br i1 %.not, label %._crit_edge, label %.lr.ph

9:                                                ; preds = %.lr.ph
  %10 = add nuw i64 %.06, 1
  %11 = load ptr, ptr %3, align 8
  %12 = getelementptr inbounds i8, ptr %11, i64 16
  %13 = getelementptr inbounds i8, ptr %11, i64 24
  %14 = load ptr, ptr %13, align 8
  %15 = load ptr, ptr %12, align 8
  %16 = ptrtoint ptr %14 to i64
  %17 = ptrtoint ptr %15 to i64
  %18 = sub i64 %16, %17
  %19 = ashr exact i64 %18, 3
  %20 = icmp ult i64 %10, %19
  br i1 %20, label %.lr.ph, label %._crit_edge, !llvm.loop !12

.lr.ph:                                           ; preds = %2, %9
  %21 = phi ptr [ %15, %9 ], [ %8, %2 ]
  %.06 = phi i64 [ %10, %9 ], [ 0, %2 ]
  %22 = getelementptr inbounds ptr, ptr %21, i64 %.06
  %23 = load ptr, ptr %22, align 8
  %24 = load ptr, ptr %23, align 8
  %25 = getelementptr inbounds i8, ptr %24, i64 136
  %26 = load ptr, ptr %25, align 8
  %27 = tail call noundef zeroext i1 %26(ptr noundef nonnull align 8 dereferenceable(24) %23, ptr noundef %1)
  br i1 %27, label %._crit_edge, label %9

._crit_edge:                                      ; preds = %.lr.ph, %9, %2
  %.lcssa = phi i1 [ false, %2 ], [ %27, %9 ], [ %27, %.lr.ph ]
  ret i1 %.lcssa
}